target datalayout = "e-m:e-p270:32:32-p271:32:32-p272:64:64-i64:64-i128:128-f80:128-n8:16:32:64-S128"
target triple = "x86_64-pc-linux-gnu"

%"class.icu_77::CharacterIterator" = type { %"class.icu_77::ForwardCharacterIterator", i32, i32, i32, i32 }
%"class.icu_77::ForwardCharacterIterator" = type { %"class.icu_77::UObject" }
%"class.icu_77::UObject" = type { ptr }

; Function Attrs: mustprogress nounwind uwtable
define noundef signext i8 @_ZN6icu_7722UCharCharacterIterator7hasNextEv(ptr noundef nonnull align 8 dereferenceable(32) %0) unnamed_addr #0 align 2 {
  %2 = alloca ptr, align 8
  store ptr %0, ptr %2, align 8, !tbaa !3
  %3 = load ptr, ptr %2, align 8
  %4 = getelementptr inbounds nuw %"class.icu_77::CharacterIterator", ptr %3, i32 0, i32 2
  %5 = load i32, ptr %4, align 4, !tbaa !23
  %6 = getelementptr inbounds nuw %"class.icu_77::CharacterIterator", ptr %3, i32 0, i32 4
  %7 = load i32, ptr %6, align 4, !tbaa !25
  %8 = icmp slt i32 %5, %7
  %9 = zext i1 %8 to i8
  ret i8 %9
}